target datalayout = "e-m:e-p270:32:32-p271:32:32-p272:64:64-i64:64-i128:128-f80:128-n8:16:32:64-S128"
target triple = "x86_64-pc-linux-gnu"

%struct.UriParserStateStructW = type { ptr, i32, ptr, ptr }
%struct.UriUriStructW = type { %struct.UriTextRangeStructW, %struct.UriTextRangeStructW, %struct.UriTextRangeStructW, %struct.UriHostDataStructW, %struct.UriTextRangeStructW, ptr, ptr, %struct.UriTextRangeStructW, %struct.UriTextRangeStructW, i32, i32, ptr }
%struct.UriHostDataStructW = type { ptr, ptr, %struct.UriTextRangeStructW }
%struct.UriTextRangeStructW = type { ptr, ptr }

; Function Attrs: inlinehint nounwind uwtable
define internal ptr @uriParseUriTailTwoW(ptr noundef %0, ptr noundef %1, ptr noundef %2, ptr noundef %3) #4 {
  %5 = alloca ptr, align 8
  %6 = alloca ptr, align 8
  %7 = alloca ptr, align 8
  %8 = alloca ptr, align 8
  %9 = alloca ptr, align 8
  %10 = alloca ptr, align 8
  %11 = alloca i32, align 4
  store ptr %0, ptr %6, align 8, !tbaa !59
  store ptr %1, ptr %7, align 8, !tbaa !61
  store ptr %2, ptr %8, align 8, !tbaa !61
  store ptr %3, ptr %9, align 8, !tbaa !10
  %12 = load ptr, ptr %7, align 8, !tbaa !61
  %13 = load ptr, ptr %8, align 8, !tbaa !61
  %14 = icmp uge ptr %12, %13
  br i1 %14, label %15, label %17

15:                                               ; preds = %4
  %16 = load ptr, ptr %8, align 8, !tbaa !61
  store ptr %16, ptr %5, align 8
  br label %48

17:                                               ; preds = %4
  %18 = load ptr, ptr %7, align 8, !tbaa !61
  %19 = load i32, ptr %18, align 4, !tbaa !21
  switch i32 %19, label %46 [
    i32 35, label %20
  ]

20:                                               ; preds = %17
  call void @llvm.lifetime.start.p0(i64 8, ptr %10) #7
  %21 = load ptr, ptr %6, align 8, !tbaa !59
  %22 = load ptr, ptr %7, align 8, !tbaa !61
  %23 = getelementptr inbounds i32, ptr %22, i64 1
  %24 = load ptr, ptr %8, align 8, !tbaa !61
  %25 = load ptr, ptr %9, align 8, !tbaa !10
  %26 = call ptr @uriParseQueryFragW(ptr noundef %21, ptr noundef %23, ptr noundef %24, ptr noundef %25)
  store ptr %26, ptr %10, align 8, !tbaa !61
  %27 = load ptr, ptr %10, align 8, !tbaa !61
  %28 = icmp eq ptr %27, null
  br i1 %28, label %29, label %30

29:                                               ; preds = %20
  store ptr null, ptr %5, align 8
  store i32 1, ptr %11, align 4
  br label %45

30:                                               ; preds = %20
  %31 = load ptr, ptr %7, align 8, !tbaa !61
  %32 = getelementptr inbounds i32, ptr %31, i64 1
  %33 = load ptr, ptr %6, align 8, !tbaa !59
  %34 = getelementptr inbounds nuw %struct.UriParserStateStructW, ptr %33, i32 0, i32 0
  %35 = load ptr, ptr %34, align 8, !tbaa !63
  %36 = getelementptr inbounds nuw %struct.UriUriStructW, ptr %35, i32 0, i32 8
  %37 = getelementptr inbounds nuw %struct.UriTextRangeStructW, ptr %36, i32 0, i32 0
  store ptr %32, ptr %37, align 8, !tbaa !98
  %38 = load ptr, ptr %10, align 8, !tbaa !61
  %39 = load ptr, ptr %6, align 8, !tbaa !59
  %40 = getelementptr inbounds nuw %struct.UriParserStateStructW, ptr %39, i32 0, i32 0
  %41 = load ptr, ptr %40, align 8, !tbaa !63
  %42 = getelementptr inbounds nuw %struct.UriUriStructW, ptr %41, i32 0, i32 8
  %43 = getelementptr inbounds nuw %struct.UriTextRangeStructW, ptr %42, i32 0, i32 1
  store ptr %38, ptr %43, align 8, !tbaa !99
  %44 = load ptr, ptr %10, align 8, !tbaa !61
  store ptr %44, ptr %5, align 8
  store i32 1, ptr %11, align 4
  br label %45

45:                                               ; preds = %30, %29
  call void @llvm.lifetime.end.p0(i64 8, ptr %10) #7
  br label %48

46:                                               ; preds = %17
  %47 = load ptr, ptr %7, align 8, !tbaa !61
  store ptr %47, ptr %5, align 8
  br label %48

48:                                               ; preds = %46, %45, %15
  %49 = load ptr, ptr %5, align 8
  ret ptr %49
}

; Function Attrs: inlinehint nounwind uwtable
define internal ptr @uriParseUriTailW(ptr noundef %0, ptr noundef %1, ptr noundef %2, ptr noundef %3) #4 {
  %5 = alloca ptr, align 8
  %6 = alloca ptr, align 8
  %7 = alloca ptr, align 8
  %8 = alloca ptr, align 8
  %9 = alloca ptr, align 8
  %10 = alloca ptr, align 8
  %11 = alloca i32, align 4
  %12 = alloca ptr, align 8
  store ptr %0, ptr %6, align 8, !tbaa !59
  store ptr %1, ptr %7, align 8, !tbaa !61
  store ptr %2, ptr %8, align 8, !tbaa !61
  store ptr %3, ptr %9, align 8, !tbaa !10
  %13 = load ptr, ptr %7, align 8, !tbaa !61
  %14 = load ptr, ptr %8, align 8, !tbaa !61
  %15 = icmp uge ptr %13, %14
  br i1 %15, label %16, label %18

16:                                               ; preds = %4
  %17 = load ptr, ptr %8, align 8, !tbaa !61
  store ptr %17, ptr %5, align 8
  br label %79

18:                                               ; preds = %4
  %19 = load ptr, ptr %7, align 8, !tbaa !61
  %20 = load i32, ptr %19, align 4, !tbaa !21
  switch i32 %20, label %77 [
    i32 35, label %21
    i32 63, label %47
  ]

21:                                               ; preds = %18
  call void @llvm.lifetime.start.p0(i64 8, ptr %10) #7
  %22 = load ptr, ptr %6, align 8, !tbaa !59
  %23 = load ptr, ptr %7, align 8, !tbaa !61
  %24 = getelementptr inbounds i32, ptr %23, i64 1
  %25 = load ptr, ptr %8, align 8, !tbaa !61
  %26 = load ptr, ptr %9, align 8, !tbaa !10
  %27 = call ptr @uriParseQueryFragW(ptr noundef %22, ptr noundef %24, ptr noundef %25, ptr noundef %26)
  store ptr %27, ptr %10, align 8, !tbaa !61
  %28 = load ptr, ptr %10, align 8, !tbaa !61
  %29 = icmp eq ptr %28, null
  br i1 %29, label %30, label %31

30:                                               ; preds = %21
  store ptr null, ptr %5, align 8
  store i32 1, ptr %11, align 4
  br label %46

31:                                               ; preds = %21
  %32 = load ptr, ptr %7, align 8, !tbaa !61
  %33 = getelementptr inbounds i32, ptr %32, i64 1
  %34 = load ptr, ptr %6, align 8, !tbaa !59
  %35 = getelementptr inbounds nuw %struct.UriParserStateStructW, ptr %34, i32 0, i32 0
  %36 = load ptr, ptr %35, align 8, !tbaa !63
  %37 = getelementptr inbounds nuw %struct.UriUriStructW, ptr %36, i32 0, i32 8
  %38 = getelementptr inbounds nuw %struct.UriTextRangeStructW, ptr %37, i32 0, i32 0
  store ptr %33, ptr %38, align 8, !tbaa !98
  %39 = load ptr, ptr %10, align 8, !tbaa !61
  %40 = load ptr, ptr %6, align 8, !tbaa !59
  %41 = getelementptr inbounds nuw %struct.UriParserStateStructW, ptr %40, i32 0, i32 0
  %42 = load ptr, ptr %41, align 8, !tbaa !63
  %43 = getelementptr inbounds nuw %struct.UriUriStructW, ptr %42, i32 0, i32 8
  %44 = getelementptr inbounds nuw %struct.UriTextRangeStructW, ptr %43, i32 0, i32 1
  store ptr %39, ptr %44, align 8, !tbaa !99
  %45 = load ptr, ptr %10, align 8, !tbaa !61
  store ptr %45, ptr %5, align 8
  store i32 1, ptr %11, align 4
  br label %46

46:                                               ; preds = %31, %30
  call void @llvm.lifetime.end.p0(i64 8, ptr %10) #7
  br label %79

47:                                               ; preds = %18
  call void @llvm.lifetime.start.p0(i64 8, ptr %12) #7
  %48 = load ptr, ptr %6, align 8, !tbaa !59
  %49 = load ptr, ptr %7, align 8, !tbaa !61
  %50 = getelementptr inbounds i32, ptr %49, i64 1
  %51 = load ptr, ptr %8, align 8, !tbaa !61
  %52 = load ptr, ptr %9, align 8, !tbaa !10
  %53 = call ptr @uriParseQueryFragW(ptr noundef %48, ptr noundef %50, ptr noundef %51, ptr noundef %52)
  store ptr %53, ptr %12, align 8, !tbaa !61
  %54 = load ptr, ptr %12, align 8, !tbaa !61
  %55 = icmp eq ptr %54, null
  br i1 %55, label %56, label %57

56:                                               ; preds = %47
  store ptr null, ptr %5, align 8
  store i32 1, ptr %11, align 4
  br label %76

57:                                               ; preds = %47
  %58 = load ptr, ptr %7, align 8, !tbaa !61
  %59 = getelementptr inbounds i32, ptr %58, i64 1
  %60 = load ptr, ptr %6, align 8, !tbaa !59
  %61 = getelementptr inbounds nuw %struct.UriParserStateStructW, ptr %60, i32 0, i32 0
  %62 = load ptr, ptr %61, align 8, !tbaa !63
  %63 = getelementptr inbounds nuw %struct.UriUriStructW, ptr %62, i32 0, i32 7
  %64 = getelementptr inbounds nuw %struct.UriTextRangeStructW, ptr %63, i32 0, i32 0
  store ptr %59, ptr %64, align 8, !tbaa !96
  %65 = load ptr, ptr %12, align 8, !tbaa !61
  %66 = load ptr, ptr %6, align 8, !tbaa !59
  %67 = getelementptr inbounds nuw %struct.UriParserStateStructW, ptr %66, i32 0, i32 0
  %68 = load ptr, ptr %67, align 8, !tbaa !63
  %69 = getelementptr inbounds nuw %struct.UriUriStructW, ptr %68, i32 0, i32 7
  %70 = getelementptr inbounds nuw %struct.UriTextRangeStructW, ptr %69, i32 0, i32 1
  store ptr %65, ptr %70, align 8, !tbaa !97
  %71 = load ptr, ptr %6, align 8, !tbaa !59
  %72 = load ptr, ptr %12, align 8, !tbaa !61
  %73 = load ptr, ptr %8, align 8, !tbaa !61
  %74 = load ptr, ptr %9, align 8, !tbaa !10
  %75 = call ptr @uriParseUriTailTwoW(ptr noundef %71, ptr noundef %72, ptr noundef %73, ptr noundef %74)
  store ptr %75, ptr %5, align 8
  store i32 1, ptr %11, align 4
  br label %76

76:                                               ; preds = %57, %56
  call void @llvm.lifetime.end.p0(i64 8, ptr %12) #7
  br label %79

77:                                               ; preds = %18
  %78 = load ptr, ptr %7, align 8, !tbaa !61
  store ptr %78, ptr %5, align 8
  br label %79

79:                                               ; preds = %77, %76, %46, %16
  %80 = load ptr, ptr %5, align 8
  ret ptr %80
}