; Function Attrs: inlinehint nounwind uwtable
define internal fastcc noundef ptr @uriParseUriTailW(ptr noundef nonnull captures(none) %0, ptr noundef nonnull %1, ptr noundef nonnull %2, ptr noundef %3) unnamed_addr #4 {
  %.not = icmp ult ptr %1, %2
  br i1 %.not, label %5, label %uriParseUriTailTwoW.exit

5:                                                ; preds = %4
  %6 = load i32, ptr %1, align 4, !tbaa !55
  switch i32 %6, label %uriParseUriTailTwoW.exit [
    i32 35, label %7
    i32 63, label %11
  ]

7:                                                ; preds = %5
  %8 = getelementptr inbounds nuw i8, ptr %1, i64 4
  %9 = tail call fastcc ptr @uriParseQueryFragW(ptr noundef %0, ptr noundef %8, ptr noundef %2, ptr noundef %3)
  %10 = icmp eq ptr %9, null
  br i1 %10, label %uriParseUriTailTwoW.exit, label %uriParseUriTailTwoW.exit.sink.split

11:                                               ; preds = %5
  %12 = getelementptr inbounds nuw i8, ptr %1, i64 4
  %13 = tail call fastcc ptr @uriParseQueryFragW(ptr noundef %0, ptr noundef %12, ptr noundef %2, ptr noundef %3)
  %14 = icmp eq ptr %13, null
  br i1 %14, label %uriParseUriTailTwoW.exit, label %15

15:                                               ; preds = %11
  %16 = load ptr, ptr %0, align 8, !tbaa !51
  %17 = getelementptr inbounds nuw i8, ptr %16, i64 112
  store ptr %12, ptr %17, align 8, !tbaa !83
  %18 = getelementptr inbounds nuw i8, ptr %16, i64 120
  store ptr %13, ptr %18, align 8, !tbaa !84
  %.not.i = icmp ult ptr %13, %2
  br i1 %.not.i, label %19, label %uriParseUriTailTwoW.exit

19:                                               ; preds = %15
  %20 = load i32, ptr %13, align 4, !tbaa !55
  %cond.i = icmp eq i32 %20, 35
  br i1 %cond.i, label %21, label %uriParseUriTailTwoW.exit

21:                                               ; preds = %19
  %22 = getelementptr inbounds nuw i8, ptr %13, i64 4
  %23 = tail call fastcc ptr @uriParseQueryFragW(ptr noundef nonnull %0, ptr noundef %22, ptr noundef nonnull %2, ptr noundef %3)
  %24 = icmp eq ptr %23, null
  br i1 %24, label %uriParseUriTailTwoW.exit, label %uriParseUriTailTwoW.exit.sink.split

uriParseUriTailTwoW.exit.sink.split:              ; preds = %21, %7
  %.sink36 = phi ptr [ %8, %7 ], [ %22, %21 ]
  %.sink = phi ptr [ %9, %7 ], [ %23, %21 ]
  %25 = load ptr, ptr %0, align 8, !tbaa !51
  %26 = getelementptr inbounds nuw i8, ptr %25, i64 128
  store ptr %.sink36, ptr %26, align 8, !tbaa !85
  %27 = getelementptr inbounds nuw i8, ptr %25, i64 136
  store ptr %.sink, ptr %27, align 8, !tbaa !86
  br label %uriParseUriTailTwoW.exit

uriParseUriTailTwoW.exit:                         ; preds = %uriParseUriTailTwoW.exit.sink.split, %21, %19, %15, %5, %11, %7, %4
  %.0 = phi ptr [ %2, %4 ], [ null, %7 ], [ null, %11 ], [ %1, %5 ], [ %2, %15 ], [ null, %21 ], [ %13, %19 ], [ %.sink, %uriParseUriTailTwoW.exit.sink.split ]
  ret ptr %.0
}